target datalayout = "e-m:e-p270:32:32-p271:32:32-p272:64:64-i64:64-i128:128-f80:128-n8:16:32:64-S128"
target triple = "x86_64-pc-linux-gnu"

%struct.SurfaceDataBounds = type { i32, i32, i32, i32 }

; Function Attrs: nounwind uwtable
define void @SurfaceData_IntersectBounds(ptr noundef %0, ptr noundef %1) #0 {
  %3 = alloca ptr, align 8
  %4 = alloca ptr, align 8
  %5 = alloca i32, align 4
  store ptr %0, ptr %3, align 8
  store ptr %1, ptr %4, align 8
  %6 = load ptr, ptr %3, align 8
  %7 = getelementptr inbounds %struct.SurfaceDataBounds, ptr %6, i32 0, i32 0
  %8 = load i32, ptr %7, align 4
  %9 = load ptr, ptr %4, align 8
  %10 = getelementptr inbounds %struct.SurfaceDataBounds, ptr %9, i32 0, i32 0
  %11 = load i32, ptr %10, align 4
  store i32 %11, ptr %5, align 4
  %12 = icmp slt i32 %8, %11
  br i1 %12, label %13, label %17

13:                                               ; preds = %2
  %14 = load i32, ptr %5, align 4
  %15 = load ptr, ptr %3, align 8
  %16 = getelementptr inbounds %struct.SurfaceDataBounds, ptr %15, i32 0, i32 0
  store i32 %14, ptr %16, align 4
  br label %17

17:                                               ; preds = %13, %2
  %18 = load ptr, ptr %3, align 8
  %19 = getelementptr inbounds %struct.SurfaceDataBounds, ptr %18, i32 0, i32 1
  %20 = load i32, ptr %19, align 4
  %21 = load ptr, ptr %4, align 8
  %22 = getelementptr inbounds %struct.SurfaceDataBounds, ptr %21, i32 0, i32 1
  %23 = load i32, ptr %22, align 4
  store i32 %23, ptr %5, align 4
  %24 = icmp slt i32 %20, %23
  br i1 %24, label %25, label %29

25:                                               ; preds = %17
  %26 = load i32, ptr %5, align 4
  %27 = load ptr, ptr %3, align 8
  %28 = getelementptr inbounds %struct.SurfaceDataBounds, ptr %27, i32 0, i32 1
  store i32 %26, ptr %28, align 4
  br label %29

29:                                               ; preds = %25, %17
  %30 = load ptr, ptr %3, align 8
  %31 = getelementptr inbounds %struct.SurfaceDataBounds, ptr %30, i32 0, i32 2
  %32 = load i32, ptr %31, align 4
  %33 = load ptr, ptr %4, align 8
  %34 = getelementptr inbounds %struct.SurfaceDataBounds, ptr %33, i32 0, i32 2
  %35 = load i32, ptr %34, align 4
  store i32 %35, ptr %5, align 4
  %36 = icmp sgt i32 %32, %35
  br i1 %36, label %37, label %41

37:                                               ; preds = %29
  %38 = load i32, ptr %5, align 4
  %39 = load ptr, ptr %3, align 8
  %40 = getelementptr inbounds %struct.SurfaceDataBounds, ptr %39, i32 0, i32 2
  store i32 %38, ptr %40, align 4
  br label %41

41:                                               ; preds = %37, %29
  %42 = load ptr, ptr %3, align 8
  %43 = getelementptr inbounds %struct.SurfaceDataBounds, ptr %42, i32 0, i32 3
  %44 = load i32, ptr %43, align 4
  %45 = load ptr, ptr %4, align 8
  %46 = getelementptr inbounds %struct.SurfaceDataBounds, ptr %45, i32 0, i32 3
  %47 = load i32, ptr %46, align 4
  store i32 %47, ptr %5, align 4
  %48 = icmp sgt i32 %44, %47
  br i1 %48, label %49, label %53

49:                                               ; preds = %41
  %50 = load i32, ptr %5, align 4
  %51 = load ptr, ptr %3, align 8
  %52 = getelementptr inbounds %struct.SurfaceDataBounds, ptr %51, i32 0, i32 3
  store i32 %50, ptr %52, align 4
  br label %53

53:                                               ; preds = %49, %41
  ret void
}