; Function Attrs: mustprogress nofree norecurse nosync nounwind willreturn memory(argmem: readwrite) uwtable
define void @SurfaceData_IntersectBounds(ptr nocapture noundef %0, ptr nocapture noundef readonly %1) local_unnamed_addr #2 {
  %3 = load i32, ptr %0, align 4
  %4 = load i32, ptr %1, align 4
  %5 = icmp slt i32 %3, %4
  br i1 %5, label %6, label %7

6:                                                ; preds = %2
  store i32 %4, ptr %0, align 4
  br label %7

7:                                                ; preds = %6, %2
  %8 = getelementptr inbounds i8, ptr %0, i64 4
  %9 = load i32, ptr %8, align 4
  %10 = getelementptr inbounds i8, ptr %1, i64 4
  %11 = load i32, ptr %10, align 4
  %12 = icmp slt i32 %9, %11
  br i1 %12, label %13, label %14

13:                                               ; preds = %7
  store i32 %11, ptr %8, align 4
  br label %14

14:                                               ; preds = %13, %7
  %15 = getelementptr inbounds i8, ptr %0, i64 8
  %16 = load i32, ptr %15, align 4
  %17 = getelementptr inbounds i8, ptr %1, i64 8
  %18 = load i32, ptr %17, align 4
  %19 = icmp sgt i32 %16, %18
  br i1 %19, label %20, label %21

20:                                               ; preds = %14
  store i32 %18, ptr %15, align 4
  br label %21

21:                                               ; preds = %20, %14
  %22 = getelementptr inbounds i8, ptr %0, i64 12
  %23 = load i32, ptr %22, align 4
  %24 = getelementptr inbounds i8, ptr %1, i64 12
  %25 = load i32, ptr %24, align 4
  %26 = icmp sgt i32 %23, %25
  br i1 %26, label %27, label %28

27:                                               ; preds = %21
  store i32 %25, ptr %22, align 4
  br label %28

28:                                               ; preds = %27, %21
  ret void
}